target datalayout = "e-m:e-p270:32:32-p271:32:32-p272:64:64-i64:64-i128:128-f80:128-n8:16:32:64-S128"
target triple = "x86_64-pc-linux-gnu"

%struct.mbedtls_ecp_point = type { %struct.mbedtls_mpi, %struct.mbedtls_mpi, %struct.mbedtls_mpi }
%struct.mbedtls_mpi = type { ptr, i16, i16 }

; Function Attrs: nounwind uwtable
define hidden i32 @mbedtls_ecp_copy(ptr noundef %0, ptr noundef %1) #0 {
  %3 = alloca ptr, align 8
  %4 = alloca ptr, align 8
  %5 = alloca i32, align 4
  store ptr %0, ptr %3, align 8, !tbaa !34
  store ptr %1, ptr %4, align 8, !tbaa !34
  call void @llvm.lifetime.start.p0(i64 4, ptr %5) #11
  store i32 -110, ptr %5, align 4, !tbaa !3
  br label %6

6:                                                ; preds = %2
  %7 = load ptr, ptr %3, align 8, !tbaa !34
  %8 = getelementptr inbounds nuw %struct.mbedtls_ecp_point, ptr %7, i32 0, i32 0
  %9 = load ptr, ptr %4, align 8, !tbaa !34
  %10 = getelementptr inbounds nuw %struct.mbedtls_ecp_point, ptr %9, i32 0, i32 0
  %11 = call i32 @mbedtls_mpi_copy(ptr noundef %8, ptr noundef %10)
  store i32 %11, ptr %5, align 4, !tbaa !3
  %12 = icmp ne i32 %11, 0
  br i1 %12, label %13, label %14

13:                                               ; preds = %6
  br label %39

14:                                               ; preds = %6
  br label %15

15:                                               ; preds = %14
  br label %16

16:                                               ; preds = %15
  br label %17

17:                                               ; preds = %16
  %18 = load ptr, ptr %3, align 8, !tbaa !34
  %19 = getelementptr inbounds nuw %struct.mbedtls_ecp_point, ptr %18, i32 0, i32 1
  %20 = load ptr, ptr %4, align 8, !tbaa !34
  %21 = getelementptr inbounds nuw %struct.mbedtls_ecp_point, ptr %20, i32 0, i32 1
  %22 = call i32 @mbedtls_mpi_copy(ptr noundef %19, ptr noundef %21)
  store i32 %22, ptr %5, align 4, !tbaa !3
  %23 = icmp ne i32 %22, 0
  br i1 %23, label %24, label %25

24:                                               ; preds = %17
  br label %39

25:                                               ; preds = %17
  br label %26

26:                                               ; preds = %25
  br label %27

27:                                               ; preds = %26
  br label %28

28:                                               ; preds = %27
  %29 = load ptr, ptr %3, align 8, !tbaa !34
  %30 = getelementptr inbounds nuw %struct.mbedtls_ecp_point, ptr %29, i32 0, i32 2
  %31 = load ptr, ptr %4, align 8, !tbaa !34
  %32 = getelementptr inbounds nuw %struct.mbedtls_ecp_point, ptr %31, i32 0, i32 2
  %33 = call i32 @mbedtls_mpi_copy(ptr noundef %30, ptr noundef %32)
  store i32 %33, ptr %5, align 4, !tbaa !3
  %34 = icmp ne i32 %33, 0
  br i1 %34, label %35, label %36

35:                                               ; preds = %28
  br label %39

36:                                               ; preds = %28
  br label %37

37:                                               ; preds = %36
  br label %38

38:                                               ; preds = %37
  br label %39

39:                                               ; preds = %38, %35, %24, %13
  %40 = load i32, ptr %5, align 4, !tbaa !3
  call void @llvm.lifetime.end.p0(i64 4, ptr %5) #11
  ret i32 %40
}