; Function Attrs: nounwind uwtable
define hidden i32 @mbedtls_ecp_copy(ptr noundef %0, ptr noundef %1) local_unnamed_addr #7 {
  %3 = tail call i32 @mbedtls_mpi_copy(ptr noundef %0, ptr noundef %1) #21
  %.not = icmp eq i32 %3, 0
  br i1 %.not, label %4, label %12

4:                                                ; preds = %2
  %5 = getelementptr inbounds nuw i8, ptr %0, i64 16
  %6 = getelementptr inbounds nuw i8, ptr %1, i64 16
  %7 = tail call i32 @mbedtls_mpi_copy(ptr noundef nonnull %5, ptr noundef nonnull %6) #21
  %.not8 = icmp eq i32 %7, 0
  br i1 %.not8, label %8, label %12

8:                                                ; preds = %4
  %9 = getelementptr inbounds nuw i8, ptr %0, i64 32
  %10 = getelementptr inbounds nuw i8, ptr %1, i64 32
  %11 = tail call i32 @mbedtls_mpi_copy(ptr noundef nonnull %9, ptr noundef nonnull %10) #21
  br label %12

12:                                               ; preds = %8, %4, %2
  %.0 = phi i32 [ %3, %2 ], [ %7, %4 ], [ %11, %8 ]
  ret i32 %.0
}